; Function Attrs: mustprogress nofree norecurse nosync nounwind willreturn memory(argmem: read) uwtable
define i64 @_ZNK3url6Parsed10GetContentEv(ptr noundef nonnull readonly align 8 captures(none) dereferenceable(72) %0) local_unnamed_addr #4 align 2 {
  %2 = getelementptr inbounds nuw i8, ptr %0, i64 4
  %3 = load i32, ptr %2, align 4, !tbaa !8
  %.not26.i = icmp eq i32 %3, -1
  %4 = load i32, ptr %0, align 8
  %5 = add i32 %3, 1
  %6 = add i32 %5, %4
  %.0.i = select i1 %.not26.i, i32 0, i32 %6
  %7 = getelementptr inbounds nuw i8, ptr %0, i64 8
  %8 = getelementptr inbounds nuw i8, ptr %0, i64 12
  %9 = load i32, ptr %8, align 4, !tbaa !8
  %.not27.i = icmp eq i32 %9, -1
  br i1 %.not27.i, label %12, label %10

10:                                               ; preds = %1
  %11 = load i32, ptr %7, align 8, !tbaa !17
  br label %_ZNK3url6Parsed21CountCharactersBeforeENS0_13ComponentTypeEb.exit

12:                                               ; preds = %1
  %13 = getelementptr inbounds nuw i8, ptr %0, i64 20
  %14 = load i32, ptr %13, align 4, !tbaa !8
  %.not28.i = icmp eq i32 %14, -1
  br i1 %.not28.i, label %18, label %15

15:                                               ; preds = %12
  %16 = getelementptr inbounds nuw i8, ptr %0, i64 16
  %17 = load i32, ptr %16, align 8, !tbaa !18
  br label %_ZNK3url6Parsed21CountCharactersBeforeENS0_13ComponentTypeEb.exit

18:                                               ; preds = %12
  %19 = getelementptr inbounds nuw i8, ptr %0, i64 28
  %20 = load i32, ptr %19, align 4, !tbaa !8
  %.not29.i = icmp eq i32 %20, -1
  br i1 %.not29.i, label %24, label %21

21:                                               ; preds = %18
  %22 = getelementptr inbounds nuw i8, ptr %0, i64 24
  %23 = load i32, ptr %22, align 8, !tbaa !19
  br label %_ZNK3url6Parsed21CountCharactersBeforeENS0_13ComponentTypeEb.exit

24:                                               ; preds = %18
  %25 = getelementptr inbounds nuw i8, ptr %0, i64 36
  %26 = load i32, ptr %25, align 4, !tbaa !8
  %.not30.i = icmp eq i32 %26, -1
  br i1 %.not30.i, label %31, label %27

27:                                               ; preds = %24
  %28 = getelementptr inbounds nuw i8, ptr %0, i64 32
  %29 = load i32, ptr %28, align 8, !tbaa !14
  %30 = add nsw i32 %29, -1
  br label %_ZNK3url6Parsed21CountCharactersBeforeENS0_13ComponentTypeEb.exit

31:                                               ; preds = %24
  %32 = getelementptr inbounds nuw i8, ptr %0, i64 44
  %33 = load i32, ptr %32, align 4, !tbaa !8
  %.not.i = icmp eq i32 %33, -1
  br i1 %.not.i, label %37, label %34

34:                                               ; preds = %31
  %35 = getelementptr inbounds nuw i8, ptr %0, i64 40
  %36 = load i32, ptr %35, align 8, !tbaa !20
  br label %_ZNK3url6Parsed21CountCharactersBeforeENS0_13ComponentTypeEb.exit

37:                                               ; preds = %31
  %38 = getelementptr inbounds nuw i8, ptr %0, i64 52
  %39 = load i32, ptr %38, align 4, !tbaa !8
  %.not31.i = icmp eq i32 %39, -1
  br i1 %.not31.i, label %44, label %40

40:                                               ; preds = %37
  %41 = getelementptr inbounds nuw i8, ptr %0, i64 48
  %42 = load i32, ptr %41, align 8, !tbaa !15
  %43 = add nsw i32 %42, -1
  br label %_ZNK3url6Parsed21CountCharactersBeforeENS0_13ComponentTypeEb.exit

44:                                               ; preds = %37
  %45 = getelementptr inbounds nuw i8, ptr %0, i64 60
  %46 = load i32, ptr %45, align 4, !tbaa !8
  %.not33.i = icmp eq i32 %46, -1
  br i1 %.not33.i, label %_ZNK3url6Parsed21CountCharactersBeforeENS0_13ComponentTypeEb.exit, label %47

47:                                               ; preds = %44
  %48 = getelementptr inbounds nuw i8, ptr %0, i64 56
  %49 = load i32, ptr %48, align 8, !tbaa !16
  %spec.select.i = add nsw i32 %49, -1
  br label %_ZNK3url6Parsed21CountCharactersBeforeENS0_13ComponentTypeEb.exit

_ZNK3url6Parsed21CountCharactersBeforeENS0_13ComponentTypeEb.exit: ; preds = %10, %15, %21, %27, %34, %40, %44, %47
  %.017.i = phi i32 [ %11, %10 ], [ %17, %15 ], [ %23, %21 ], [ %30, %27 ], [ %36, %34 ], [ %43, %40 ], [ %.0.i, %44 ], [ %spec.select.i, %47 ]
  %50 = getelementptr inbounds nuw i8, ptr %0, i64 60
  %51 = load i32, ptr %50, align 4, !tbaa !8
  %.not.i4 = icmp eq i32 %51, -1
  br i1 %.not.i4, label %56, label %52

52:                                               ; preds = %_ZNK3url6Parsed21CountCharactersBeforeENS0_13ComponentTypeEb.exit
  %53 = getelementptr inbounds nuw i8, ptr %0, i64 56
  %54 = load i32, ptr %53, align 8, !tbaa !3
  %55 = add nsw i32 %54, %51
  br label %_ZNK3url6Parsed6LengthEv.exit

56:                                               ; preds = %_ZNK3url6Parsed21CountCharactersBeforeENS0_13ComponentTypeEb.exit
  %57 = load i32, ptr %7, align 8
  %58 = add nuw i32 %9, 1
  %59 = add i32 %58, %57
  %.1.i.i = select i1 %.not27.i, i32 %.0.i, i32 %59
  %60 = getelementptr inbounds nuw i8, ptr %0, i64 16
  %61 = getelementptr inbounds nuw i8, ptr %0, i64 20
  %62 = load i32, ptr %61, align 4, !tbaa !8
  %.not28.i.i = icmp eq i32 %62, -1
  %63 = load i32, ptr %60, align 8
  %64 = add nuw i32 %62, 1
  %65 = add i32 %64, %63
  %.2.i.i = select i1 %.not28.i.i, i32 %.1.i.i, i32 %65
  %66 = getelementptr inbounds nuw i8, ptr %0, i64 24
  %67 = getelementptr inbounds nuw i8, ptr %0, i64 28
  %68 = load i32, ptr %67, align 4, !tbaa !8
  %.not29.i.i = icmp eq i32 %68, -1
  %69 = load i32, ptr %66, align 8
  %70 = add nsw i32 %69, %68
  %.3.i.i = select i1 %.not29.i.i, i32 %.2.i.i, i32 %70
  %71 = getelementptr inbounds nuw i8, ptr %0, i64 32
  %72 = getelementptr inbounds nuw i8, ptr %0, i64 36
  %73 = load i32, ptr %72, align 4, !tbaa !8
  %.not30.i.i = icmp eq i32 %73, -1
  %74 = load i32, ptr %71, align 8
  %75 = add nsw i32 %74, %73
  %.4.i.i = select i1 %.not30.i.i, i32 %.3.i.i, i32 %75
  %76 = getelementptr inbounds nuw i8, ptr %0, i64 40
  %77 = getelementptr inbounds nuw i8, ptr %0, i64 44
  %78 = load i32, ptr %77, align 4, !tbaa !8
  %.not.i.i = icmp eq i32 %78, -1
  %79 = load i32, ptr %76, align 8
  %80 = add nsw i32 %79, %78
  %.5.i.i = select i1 %.not.i.i, i32 %.4.i.i, i32 %80
  %81 = getelementptr inbounds nuw i8, ptr %0, i64 48
  %82 = getelementptr inbounds nuw i8, ptr %0, i64 52
  %83 = load i32, ptr %82, align 4, !tbaa !8
  %.not31.i.i = icmp eq i32 %83, -1
  %84 = load i32, ptr %81, align 8
  %85 = add nsw i32 %84, %83
  %.6.i.i = select i1 %.not31.i.i, i32 %.5.i.i, i32 %85
  br label %_ZNK3url6Parsed6LengthEv.exit

_ZNK3url6Parsed6LengthEv.exit:                    ; preds = %52, %56
  %.0.i5 = phi i32 [ %55, %52 ], [ %.6.i.i, %56 ]
  %.not = icmp eq i32 %.0.i5, %.017.i
  %86 = sub nsw i32 %.0.i5, %.017.i
  %spec.select = select i1 %.not, i32 -1, i32 %86
  %spec.select6 = select i1 %.not, i32 0, i32 %.017.i
  %.sroa.3.0.insert.ext = zext i32 %spec.select to i64
  %.sroa.3.0.insert.shift = shl nuw i64 %.sroa.3.0.insert.ext, 32
  %.sroa.0.0.insert.ext = zext i32 %spec.select6 to i64
  %.sroa.0.0.insert.insert = or disjoint i64 %.sroa.3.0.insert.shift, %.sroa.0.0.insert.ext
  ret i64 %.sroa.0.0.insert.insert
}